; Function Attrs: nounwind uwtable
define noundef i32 @cli_map_init(ptr nocapture noundef writeonly %0, i32 noundef %1, i32 noundef %2, i32 noundef %3) local_unnamed_addr #0 {
  %5 = icmp slt i32 %1, 1
  %6 = icmp slt i32 %2, 0
  %or.cond = or i1 %5, %6
  %7 = icmp slt i32 %3, 1
  %or.cond3 = or i1 %or.cond, %7
  br i1 %or.cond3, label %cli_hashtab_init.exit, label %.preheader.i

.preheader.i:                                     ; preds = %4
  tail call void @llvm.memset.p0.i64(ptr noundef nonnull align 8 dereferenceable(64) %0, i8 0, i64 64, i1 false)
  %8 = tail call ptr @cli_max_calloc(i64 noundef 64, i64 noundef 24) #18
  store ptr %8, ptr %0, align 8
  %.not11.i = icmp eq ptr %8, null
  br i1 %.not11.i, label %cli_hashtab_init.exit, label %9

9:                                                ; preds = %.preheader.i
  %10 = getelementptr inbounds i8, ptr %0, i64 8
  store i64 64, ptr %10, align 8
  %11 = getelementptr inbounds i8, ptr %0, i64 16
  store i64 0, ptr %11, align 8
  %12 = getelementptr inbounds i8, ptr %0, i64 24
  store i64 51, ptr %12, align 8
  %13 = getelementptr inbounds i8, ptr %0, i64 44
  store i32 %1, ptr %13, align 4
  %14 = getelementptr inbounds i8, ptr %0, i64 48
  store i32 %2, ptr %14, align 8
  %15 = getelementptr inbounds i8, ptr %0, i64 52
  store i32 -1, ptr %15, align 4
  %16 = getelementptr inbounds i8, ptr %0, i64 56
  store i32 -1, ptr %16, align 8
  br label %cli_hashtab_init.exit

cli_hashtab_init.exit:                            ; preds = %.preheader.i, %4, %9
  %.0 = phi i32 [ 0, %9 ], [ 3, %4 ], [ 20, %.preheader.i ]
  ret i32 %.0
}